target datalayout = "e-m:e-p270:32:32-p271:32:32-p272:64:64-i64:64-i128:128-f80:128-n8:16:32:64-S128"
target triple = "x86_64-pc-linux-gnu"

%"class.icu_77::WholeStringBreakIterator" = type <{ %"class.icu_77::BreakIterator", i32, [4 x i8] }>
%"class.icu_77::BreakIterator" = type { %"class.icu_77::UObject", ptr, ptr, ptr }
%"class.icu_77::UObject" = type { ptr }
%"class.icu_77::Locale" = type <{ %"class.icu_77::UObject", [12 x i8], [6 x i8], [4 x i8], [2 x i8], i32, [4 x i8], ptr, [157 x i8], [3 x i8], ptr, i8, [7 x i8] }>
%"class.icu_77::LocalPointerBase" = type { ptr }

; Function Attrs: mustprogress nounwind uwtable
define linkonce_odr void @_ZN6icu_7712LocalPointerINS_13BreakIteratorEE12adoptInsteadEPS1_(ptr noundef nonnull align 8 dereferenceable(8) %0, ptr noundef %1) #0 comdat align 2 {
  %3 = alloca ptr, align 8
  %4 = alloca ptr, align 8
  store ptr %0, ptr %3, align 8, !tbaa !35
  store ptr %1, ptr %4, align 8, !tbaa !8
  %5 = load ptr, ptr %3, align 8
  %6 = getelementptr inbounds nuw %"class.icu_77::LocalPointerBase", ptr %5, i32 0, i32 0
  %7 = load ptr, ptr %6, align 8, !tbaa !39
  %8 = icmp eq ptr %7, null
  br i1 %8, label %13, label %9

9:                                                ; preds = %2
  %10 = load ptr, ptr %7, align 8, !tbaa !37
  %11 = getelementptr inbounds ptr, ptr %10, i64 1
  %12 = load ptr, ptr %11, align 8
  call void %12(ptr noundef nonnull align 8 dereferenceable(32) %7) #8
  br label %13

13:                                               ; preds = %9, %2
  %14 = load ptr, ptr %4, align 8, !tbaa !8
  %15 = getelementptr inbounds nuw %"class.icu_77::LocalPointerBase", ptr %5, i32 0, i32 0
  store ptr %14, ptr %15, align 8, !tbaa !39
  ret void
}

; Function Attrs: mustprogress uwtable
define linkonce_odr void @_ZN6icu_7724WholeStringBreakIteratorC2Ev(ptr noundef nonnull align 8 dereferenceable(36) %0) unnamed_addr #3 comdat align 2 {
  %2 = alloca ptr, align 8
  store ptr %0, ptr %2, align 8, !tbaa !3
  %3 = load ptr, ptr %2, align 8
  call void @_ZN6icu_7713BreakIteratorC2Ev(ptr noundef nonnull align 8 dereferenceable(32) %3)
  store ptr getelementptr inbounds inrange(-16, 184) ({ [25 x ptr] }, ptr @_ZTVN6icu_7724WholeStringBreakIteratorE, i32 0, i32 0, i32 2), ptr %3, align 8, !tbaa !37
  %4 = getelementptr inbounds nuw %"class.icu_77::WholeStringBreakIterator", ptr %3, i32 0, i32 1
  store i32 0, ptr %4, align 8, !tbaa !17
  ret void
}

; Function Attrs: inlinehint mustprogress nounwind uwtable
define internal noundef signext i8 @_ZL9U_FAILURE10UErrorCode(i32 noundef %0) #4 {
  %2 = alloca i32, align 4
  store i32 %0, ptr %2, align 4, !tbaa !13
  %3 = load i32, ptr %2, align 4, !tbaa !13
  %4 = icmp sgt i32 %3, 0
  %5 = zext i1 %4 to i8
  ret i8 %5
}

; Function Attrs: mustprogress uwtable
define ptr @ustrcase_getTitleBreakIterator_77(ptr noundef %0, ptr noundef %1, i32 noundef %2, ptr noundef %3, ptr noundef nonnull align 8 dereferenceable(8) %4, ptr noundef nonnull align 4 dereferenceable(4) %5) #3 personality ptr @__gxx_personality_v0 {
  %7 = alloca ptr, align 8
  %8 = alloca ptr, align 8
  %9 = alloca ptr, align 8
  %10 = alloca i32, align 4
  %11 = alloca ptr, align 8
  %12 = alloca ptr, align 8
  %13 = alloca ptr, align 8
  %14 = alloca %"class.icu_77::Locale", align 8
  %15 = alloca ptr, align 8
  %16 = alloca i32, align 4
  %17 = alloca ptr, align 8
  %18 = alloca i1, align 1
  %19 = alloca %"class.icu_77::Locale", align 8
  store ptr %0, ptr %8, align 8, !tbaa !31
  store ptr %1, ptr %9, align 8, !tbaa !33
  store i32 %2, ptr %10, align 4, !tbaa !28
  store ptr %3, ptr %11, align 8, !tbaa !8
  store ptr %4, ptr %12, align 8, !tbaa !35
  store ptr %5, ptr %13, align 8, !tbaa !12
  %20 = load ptr, ptr %13, align 8, !tbaa !12
  %21 = load i32, ptr %20, align 4, !tbaa !13
  %22 = call noundef signext i8 @_ZL9U_FAILURE10UErrorCode(i32 noundef %21)
  %23 = icmp ne i8 %22, 0
  br i1 %23, label %24, label %25

24:                                               ; preds = %6
  store ptr null, ptr %7, align 8
  br label %97

25:                                               ; preds = %6
  %26 = load i32, ptr %10, align 4, !tbaa !28
  %27 = and i32 %26, 224
  store i32 %27, ptr %10, align 4, !tbaa !28
  %28 = load i32, ptr %10, align 4, !tbaa !28
  %29 = icmp ne i32 %28, 0
  br i1 %29, label %30, label %35

30:                                               ; preds = %25
  %31 = load ptr, ptr %11, align 8, !tbaa !8
  %32 = icmp ne ptr %31, null
  br i1 %32, label %33, label %35

33:                                               ; preds = %30
  %34 = load ptr, ptr %13, align 8, !tbaa !12
  store i32 1, ptr %34, align 4, !tbaa !13
  store ptr null, ptr %7, align 8
  br label %97

35:                                               ; preds = %30, %25
  %36 = load ptr, ptr %11, align 8, !tbaa !8
  %37 = icmp eq ptr %36, null
  br i1 %37, label %38, label %95

38:                                               ; preds = %35
  %39 = load i32, ptr %10, align 4, !tbaa !28
  switch i32 %39, label %90 [
    i32 0, label %40
    i32 32, label %55
    i32 64, label %75
  ]

40:                                               ; preds = %38
  call void @llvm.lifetime.start.p0(i64 224, ptr %14) #8
  %41 = load ptr, ptr %8, align 8, !tbaa !31
  %42 = icmp ne ptr %41, null
  br i1 %42, label %43, label %45

43:                                               ; preds = %40
  %44 = load ptr, ptr %8, align 8, !tbaa !31
  call void @_ZN6icu_776LocaleC1ERKS0_(ptr noundef nonnull align 8 dereferenceable(217) %14, ptr noundef nonnull align 8 dereferenceable(217) %44)
  br label %47

45:                                               ; preds = %40
  %46 = load ptr, ptr %9, align 8, !tbaa !33
  call void @_ZN6icu_776LocaleC1EPKcS2_S2_S2_(ptr noundef nonnull align 8 dereferenceable(217) %14, ptr noundef %46, ptr noundef null, ptr noundef null, ptr noundef null)
  br label %47

47:                                               ; preds = %45, %43
  %48 = load ptr, ptr %13, align 8, !tbaa !12
  %49 = invoke noundef ptr @_ZN6icu_7713BreakIterator18createWordInstanceERKNS_6LocaleER10UErrorCode(ptr noundef nonnull align 8 dereferenceable(217) %14, ptr noundef nonnull align 4 dereferenceable(4) %48)
          to label %50 unwind label %51

50:                                               ; preds = %47
  store ptr %49, ptr %11, align 8, !tbaa !8
  call void @_ZN6icu_776LocaleD1Ev(ptr noundef nonnull align 8 dereferenceable(217) %14) #8
  call void @llvm.lifetime.end.p0(i64 224, ptr %14) #8
  br label %92

51:                                               ; preds = %47
  %52 = landingpad { ptr, i32 }
          cleanup
  %53 = extractvalue { ptr, i32 } %52, 0
  store ptr %53, ptr %15, align 8
  %54 = extractvalue { ptr, i32 } %52, 1
  store i32 %54, ptr %16, align 4
  call void @_ZN6icu_776LocaleD1Ev(ptr noundef nonnull align 8 dereferenceable(217) %14) #8
  call void @llvm.lifetime.end.p0(i64 224, ptr %14) #8
  br label %99

55:                                               ; preds = %38
  %56 = call noundef ptr @_ZN6icu_777UMemorynwEm(i64 noundef 40) #8
  %57 = icmp eq ptr %56, null
  store i1 false, ptr %18, align 1
  br i1 %57, label %60, label %58

58:                                               ; preds = %55
  store ptr %56, ptr %17, align 8
  store i1 true, ptr %18, align 1
  invoke void @_ZN6icu_7724WholeStringBreakIteratorC2Ev(ptr noundef nonnull align 8 dereferenceable(36) %56)
          to label %59 unwind label %66

59:                                               ; preds = %58
  br label %60

60:                                               ; preds = %59, %55
  %61 = phi ptr [ %56, %59 ], [ null, %55 ]
  store ptr %61, ptr %11, align 8, !tbaa !8
  %62 = load ptr, ptr %11, align 8, !tbaa !8
  %63 = icmp eq ptr %62, null
  br i1 %63, label %64, label %74

64:                                               ; preds = %60
  %65 = load ptr, ptr %13, align 8, !tbaa !12
  store i32 7, ptr %65, align 4, !tbaa !13
  br label %74

66:                                               ; preds = %58
  %67 = landingpad { ptr, i32 }
          cleanup
  %68 = extractvalue { ptr, i32 } %67, 0
  store ptr %68, ptr %15, align 8
  %69 = extractvalue { ptr, i32 } %67, 1
  store i32 %69, ptr %16, align 4
  %70 = load i1, ptr %18, align 1
  br i1 %70, label %71, label %73

71:                                               ; preds = %66
  %72 = load ptr, ptr %17, align 8
  call void @_ZN6icu_777UMemorydlEPv(ptr noundef %72) #8
  br label %73

73:                                               ; preds = %71, %66
  br label %99

74:                                               ; preds = %64, %60
  br label %92

75:                                               ; preds = %38
  call void @llvm.lifetime.start.p0(i64 224, ptr %19) #8
  %76 = load ptr, ptr %8, align 8, !tbaa !31
  %77 = icmp ne ptr %76, null
  br i1 %77, label %78, label %80

78:                                               ; preds = %75
  %79 = load ptr, ptr %8, align 8, !tbaa !31
  call void @_ZN6icu_776LocaleC1ERKS0_(ptr noundef nonnull align 8 dereferenceable(217) %19, ptr noundef nonnull align 8 dereferenceable(217) %79)
  br label %82

80:                                               ; preds = %75
  %81 = load ptr, ptr %9, align 8, !tbaa !33
  call void @_ZN6icu_776LocaleC1EPKcS2_S2_S2_(ptr noundef nonnull align 8 dereferenceable(217) %19, ptr noundef %81, ptr noundef null, ptr noundef null, ptr noundef null)
  br label %82

82:                                               ; preds = %80, %78
  %83 = load ptr, ptr %13, align 8, !tbaa !12
  %84 = invoke noundef ptr @_ZN6icu_7713BreakIterator22createSentenceInstanceERKNS_6LocaleER10UErrorCode(ptr noundef nonnull align 8 dereferenceable(217) %19, ptr noundef nonnull align 4 dereferenceable(4) %83)
          to label %85 unwind label %86

85:                                               ; preds = %82
  store ptr %84, ptr %11, align 8, !tbaa !8
  call void @_ZN6icu_776LocaleD1Ev(ptr noundef nonnull align 8 dereferenceable(217) %19) #8
  call void @llvm.lifetime.end.p0(i64 224, ptr %19) #8
  br label %92

86:                                               ; preds = %82
  %87 = landingpad { ptr, i32 }
          cleanup
  %88 = extractvalue { ptr, i32 } %87, 0
  store ptr %88, ptr %15, align 8
  %89 = extractvalue { ptr, i32 } %87, 1
  store i32 %89, ptr %16, align 4
  call void @_ZN6icu_776LocaleD1Ev(ptr noundef nonnull align 8 dereferenceable(217) %19) #8
  call void @llvm.lifetime.end.p0(i64 224, ptr %19) #8
  br label %99

90:                                               ; preds = %38
  %91 = load ptr, ptr %13, align 8, !tbaa !12
  store i32 1, ptr %91, align 4, !tbaa !13
  br label %92

92:                                               ; preds = %90, %85, %74, %50
  %93 = load ptr, ptr %12, align 8, !tbaa !35
  %94 = load ptr, ptr %11, align 8, !tbaa !8
  call void @_ZN6icu_7712LocalPointerINS_13BreakIteratorEE12adoptInsteadEPS1_(ptr noundef nonnull align 8 dereferenceable(8) %93, ptr noundef %94)
  br label %95

95:                                               ; preds = %92, %35
  %96 = load ptr, ptr %11, align 8, !tbaa !8
  store ptr %96, ptr %7, align 8
  br label %97

97:                                               ; preds = %95, %33, %24
  %98 = load ptr, ptr %7, align 8
  ret ptr %98

99:                                               ; preds = %86, %73, %51
  %100 = load ptr, ptr %15, align 8
  %101 = load i32, ptr %16, align 4
  %102 = insertvalue { ptr, i32 } poison, ptr %100, 0
  %103 = insertvalue { ptr, i32 } %102, i32 %101, 1
  resume { ptr, i32 } %103
}