; Function Attrs: mustprogress uwtable
define noundef ptr @ustrcase_getTitleBreakIterator_77(ptr noundef %0, ptr noundef %1, i32 noundef %2, ptr noundef readnone %3, ptr noundef nonnull align 8 captures(none) dereferenceable(8) %4, ptr noundef nonnull align 4 dereferenceable(4) %5) local_unnamed_addr #6 personality ptr @__gxx_personality_v0 {
  %7 = alloca %"class.icu_77::Locale", align 8
  %8 = alloca %"class.icu_77::Locale", align 8
  %9 = load i32, ptr %5, align 4, !tbaa !3
  %10 = icmp slt i32 %9, 1
  br i1 %10, label %11, label %52

11:                                               ; preds = %6
  %12 = and i32 %2, 224
  %13 = icmp ne i32 %12, 0
  %14 = icmp ne ptr %3, null
  %or.cond = and i1 %13, %14
  br i1 %or.cond, label %15, label %16

15:                                               ; preds = %11
  store i32 1, ptr %5, align 4, !tbaa !3
  br label %52

16:                                               ; preds = %11
  %17 = icmp eq ptr %3, null
  br i1 %17, label %18, label %52

18:                                               ; preds = %16
  %trunc = trunc nuw i32 %12 to i8
  switch i8 %trunc, label %44 [
    i8 0, label %19
    i8 32, label %27
    i8 64, label %36
  ]

19:                                               ; preds = %18
  call void @llvm.lifetime.start.p0(i64 224, ptr nonnull %7) #10
  %.not37 = icmp eq ptr %0, null
  br i1 %.not37, label %21, label %20

20:                                               ; preds = %19
  call void @_ZN6icu_776LocaleC1ERKS0_(ptr noundef nonnull align 8 dereferenceable(217) %7, ptr noundef nonnull align 8 dereferenceable(217) %0)
  br label %22

21:                                               ; preds = %19
  call void @_ZN6icu_776LocaleC1EPKcS2_S2_S2_(ptr noundef nonnull align 8 dereferenceable(217) %7, ptr noundef %1, ptr noundef null, ptr noundef null, ptr noundef null)
  br label %22

22:                                               ; preds = %21, %20
  %23 = invoke noundef ptr @_ZN6icu_7713BreakIterator18createWordInstanceERKNS_6LocaleER10UErrorCode(ptr noundef nonnull align 8 dereferenceable(217) %7, ptr noundef nonnull align 4 dereferenceable(4) %5)
          to label %24 unwind label %25

24:                                               ; preds = %22
  call void @_ZN6icu_776LocaleD1Ev(ptr noundef nonnull align 8 dereferenceable(217) %7) #10
  call void @llvm.lifetime.end.p0(i64 224, ptr nonnull %7) #10
  br label %45

25:                                               ; preds = %22
  %26 = landingpad { ptr, i32 }
          cleanup
  call void @_ZN6icu_776LocaleD1Ev(ptr noundef nonnull align 8 dereferenceable(217) %7) #10
  call void @llvm.lifetime.end.p0(i64 224, ptr nonnull %7) #10
  br label %53

27:                                               ; preds = %18
  %28 = tail call noundef ptr @_ZN6icu_777UMemorynwEm(i64 noundef 40) #10
  %29 = icmp eq ptr %28, null
  br i1 %29, label %33, label %30

30:                                               ; preds = %27
  invoke void @_ZN6icu_7713BreakIteratorC2Ev(ptr noundef nonnull align 8 dereferenceable(36) %28)
          to label %31 unwind label %34

31:                                               ; preds = %30
  store ptr getelementptr inbounds nuw inrange(-16, 184) (i8, ptr @_ZTVN6icu_7724WholeStringBreakIteratorE, i64 16), ptr %28, align 8, !tbaa !15
  %32 = getelementptr inbounds nuw i8, ptr %28, i64 32
  store i32 0, ptr %32, align 8, !tbaa !8
  br label %45

33:                                               ; preds = %27
  store i32 7, ptr %5, align 4, !tbaa !3
  br label %45

34:                                               ; preds = %30
  %35 = landingpad { ptr, i32 }
          cleanup
  tail call void @_ZN6icu_777UMemorydlEPv(ptr noundef nonnull %28) #10
  br label %53

36:                                               ; preds = %18
  call void @llvm.lifetime.start.p0(i64 224, ptr nonnull %8) #10
  %.not36 = icmp eq ptr %0, null
  br i1 %.not36, label %38, label %37

37:                                               ; preds = %36
  call void @_ZN6icu_776LocaleC1ERKS0_(ptr noundef nonnull align 8 dereferenceable(217) %8, ptr noundef nonnull align 8 dereferenceable(217) %0)
  br label %39

38:                                               ; preds = %36
  call void @_ZN6icu_776LocaleC1EPKcS2_S2_S2_(ptr noundef nonnull align 8 dereferenceable(217) %8, ptr noundef %1, ptr noundef null, ptr noundef null, ptr noundef null)
  br label %39

39:                                               ; preds = %38, %37
  %40 = invoke noundef ptr @_ZN6icu_7713BreakIterator22createSentenceInstanceERKNS_6LocaleER10UErrorCode(ptr noundef nonnull align 8 dereferenceable(217) %8, ptr noundef nonnull align 4 dereferenceable(4) %5)
          to label %41 unwind label %42

41:                                               ; preds = %39
  call void @_ZN6icu_776LocaleD1Ev(ptr noundef nonnull align 8 dereferenceable(217) %8) #10
  call void @llvm.lifetime.end.p0(i64 224, ptr nonnull %8) #10
  br label %45

42:                                               ; preds = %39
  %43 = landingpad { ptr, i32 }
          cleanup
  call void @_ZN6icu_776LocaleD1Ev(ptr noundef nonnull align 8 dereferenceable(217) %8) #10
  call void @llvm.lifetime.end.p0(i64 224, ptr nonnull %8) #10
  br label %53

44:                                               ; preds = %18
  store i32 1, ptr %5, align 4, !tbaa !3
  br label %45

45:                                               ; preds = %31, %33, %44, %41, %24
  %.1 = phi ptr [ null, %44 ], [ %40, %41 ], [ null, %33 ], [ %28, %31 ], [ %23, %24 ]
  %46 = load ptr, ptr %4, align 8, !tbaa !17
  %47 = icmp eq ptr %46, null
  br i1 %47, label %_ZN6icu_7712LocalPointerINS_13BreakIteratorEE12adoptInsteadEPS1_.exit, label %48

48:                                               ; preds = %45
  %49 = load ptr, ptr %46, align 8, !tbaa !15
  %50 = getelementptr inbounds nuw i8, ptr %49, i64 8
  %51 = load ptr, ptr %50, align 8
  call void %51(ptr noundef nonnull align 8 dereferenceable(32) %46) #10
  br label %_ZN6icu_7712LocalPointerINS_13BreakIteratorEE12adoptInsteadEPS1_.exit

_ZN6icu_7712LocalPointerINS_13BreakIteratorEE12adoptInsteadEPS1_.exit: ; preds = %45, %48
  store ptr %.1, ptr %4, align 8, !tbaa !17
  br label %52

52:                                               ; preds = %16, %_ZN6icu_7712LocalPointerINS_13BreakIteratorEE12adoptInsteadEPS1_.exit, %6, %15
  %.0 = phi ptr [ null, %15 ], [ null, %6 ], [ %.1, %_ZN6icu_7712LocalPointerINS_13BreakIteratorEE12adoptInsteadEPS1_.exit ], [ %3, %16 ]
  ret ptr %.0

53:                                               ; preds = %34, %42, %25
  %.pn = phi { ptr, i32 } [ %43, %42 ], [ %35, %34 ], [ %26, %25 ]
  resume { ptr, i32 } %.pn
}